target datalayout = "e-m:e-p270:32:32-p271:32:32-p272:64:64-i64:64-i128:128-f80:128-n8:16:32:64-S128"
target triple = "x86_64-pc-linux-gnu"

%struct.sockaddr = type { i16, [14 x i8] }
%struct.addrinfo = type { i32, i32, i32, i32, i32, ptr, ptr, ptr }
%struct.sockaddr_in = type { i16, i16, %struct.in_addr, [8 x i8] }
%struct.in_addr = type { i32 }
%struct.sockaddr_in6 = type { i16, i16, i32, %struct.in6_addr, i32 }
%struct.in6_addr = type { %union.anon }
%union.anon = type { [4 x i32] }

@.str.25 = private unnamed_addr constant [36 x i8] c"Can't resolve LocalNet hostname %s\0A\00", align 1
@.str.26 = private unnamed_addr constant [42 x i8] c"Unsupported address type for LocalNet %s\0A\00", align 1

; Function Attrs: nounwind uwtable
define internal i32 @resolve(ptr noundef %0, ptr noundef %1, ptr noundef %2) #0 {
  %4 = alloca i32, align 4
  %5 = alloca ptr, align 8
  %6 = alloca ptr, align 8
  %7 = alloca ptr, align 8
  %8 = alloca %struct.addrinfo, align 8
  %9 = alloca ptr, align 8
  %10 = alloca ptr, align 8
  %11 = alloca ptr, align 8
  %12 = alloca i32, align 4
  %13 = alloca i32, align 4
  %14 = alloca i32, align 4
  store ptr %0, ptr %5, align 8
  store ptr %1, ptr %6, align 8
  store ptr %2, ptr %7, align 8
  %15 = load ptr, ptr %5, align 8
  %16 = icmp ne ptr %15, null
  br i1 %16, label %19, label %17

17:                                               ; preds = %3
  %18 = load ptr, ptr %6, align 8
  store i32 0, ptr %18, align 4
  store i32 0, ptr %4, align 4
  br label %112

19:                                               ; preds = %3
  call void @llvm.memset.p0.i64(ptr align 8 %8, i8 0, i64 48, i1 false)
  %20 = getelementptr inbounds %struct.addrinfo, ptr %8, i32 0, i32 1
  store i32 0, ptr %20, align 4
  %21 = getelementptr inbounds %struct.addrinfo, ptr %8, i32 0, i32 2
  store i32 1, ptr %21, align 8
  %22 = load ptr, ptr %5, align 8
  %23 = call i32 @getaddrinfo(ptr noundef %22, ptr noundef null, ptr noundef %8, ptr noundef %9)
  %24 = icmp ne i32 %23, 0
  br i1 %24, label %25, label %28

25:                                               ; preds = %19
  %26 = load ptr, ptr %5, align 8
  %27 = call i32 (i32, ptr, ...) @logg(i32 noundef 5, ptr noundef @.str.25, ptr noundef %26)
  store i32 1, ptr %4, align 4
  br label %112

28:                                               ; preds = %19
  %29 = load ptr, ptr %9, align 8
  %30 = getelementptr inbounds %struct.addrinfo, ptr %29, i32 0, i32 4
  %31 = load i32, ptr %30, align 8
  %32 = zext i32 %31 to i64
  %33 = icmp eq i64 %32, 16
  br i1 %33, label %34, label %54

34:                                               ; preds = %28
  %35 = load ptr, ptr %9, align 8
  %36 = getelementptr inbounds %struct.addrinfo, ptr %35, i32 0, i32 5
  %37 = load ptr, ptr %36, align 8
  %38 = getelementptr inbounds %struct.sockaddr, ptr %37, i32 0, i32 0
  %39 = load i16, ptr %38, align 2
  %40 = zext i16 %39 to i32
  %41 = icmp eq i32 %40, 2
  br i1 %41, label %42, label %54

42:                                               ; preds = %34
  %43 = load ptr, ptr %9, align 8
  %44 = getelementptr inbounds %struct.addrinfo, ptr %43, i32 0, i32 5
  %45 = load ptr, ptr %44, align 8
  store ptr %45, ptr %10, align 8
  %46 = load ptr, ptr %6, align 8
  store i32 1, ptr %46, align 4
  %47 = load ptr, ptr %10, align 8
  %48 = getelementptr inbounds %struct.sockaddr_in, ptr %47, i32 0, i32 2
  %49 = getelementptr inbounds %struct.in_addr, ptr %48, i32 0, i32 0
  %50 = load i32, ptr %49, align 4
  %51 = call i32 @htonl(i32 noundef %50) #9
  %52 = load ptr, ptr %7, align 8
  %53 = getelementptr inbounds i32, ptr %52, i64 0
  store i32 %51, ptr %53, align 4
  br label %110

54:                                               ; preds = %34, %28
  %55 = load ptr, ptr %9, align 8
  %56 = getelementptr inbounds %struct.addrinfo, ptr %55, i32 0, i32 4
  %57 = load i32, ptr %56, align 8
  %58 = zext i32 %57 to i64
  %59 = icmp eq i64 %58, 28
  br i1 %59, label %60, label %105

60:                                               ; preds = %54
  %61 = load ptr, ptr %9, align 8
  %62 = getelementptr inbounds %struct.addrinfo, ptr %61, i32 0, i32 5
  %63 = load ptr, ptr %62, align 8
  %64 = getelementptr inbounds %struct.sockaddr, ptr %63, i32 0, i32 0
  %65 = load i16, ptr %64, align 2
  %66 = zext i16 %65 to i32
  %67 = icmp eq i32 %66, 10
  br i1 %67, label %68, label %105

68:                                               ; preds = %60
  %69 = load ptr, ptr %9, align 8
  %70 = getelementptr inbounds %struct.addrinfo, ptr %69, i32 0, i32 5
  %71 = load ptr, ptr %70, align 8
  store ptr %71, ptr %11, align 8
  store i32 0, ptr %14, align 4
  %72 = load ptr, ptr %6, align 8
  store i32 2, ptr %72, align 4
  store i32 0, ptr %12, align 4
  store i32 0, ptr %13, align 4
  br label %73

73:                                               ; preds = %101, %68
  %74 = load i32, ptr %12, align 4
  %75 = icmp ult i32 %74, 16
  br i1 %75, label %76, label %104

76:                                               ; preds = %73
  %77 = load ptr, ptr %11, align 8
  %78 = getelementptr inbounds %struct.sockaddr_in6, ptr %77, i32 0, i32 3
  %79 = getelementptr inbounds %struct.in6_addr, ptr %78, i32 0, i32 0
  %80 = load i32, ptr %12, align 4
  %81 = zext i32 %80 to i64
  %82 = getelementptr inbounds [16 x i8], ptr %79, i64 0, i64 %81
  %83 = load i8, ptr %82, align 1
  %84 = zext i8 %83 to i32
  %85 = load i32, ptr %13, align 4
  %86 = mul i32 8, %85
  %87 = shl i32 %84, %86
  %88 = load i32, ptr %14, align 4
  %89 = add i32 %88, %87
  store i32 %89, ptr %14, align 4
  %90 = load i32, ptr %13, align 4
  %91 = add i32 %90, 1
  store i32 %91, ptr %13, align 4
  %92 = icmp eq i32 %91, 4
  br i1 %92, label %93, label %100

93:                                               ; preds = %76
  %94 = load i32, ptr %14, align 4
  %95 = load ptr, ptr %7, align 8
  %96 = load i32, ptr %12, align 4
  %97 = lshr i32 %96, 2
  %98 = zext i32 %97 to i64
  %99 = getelementptr inbounds i32, ptr %95, i64 %98
  store i32 %94, ptr %99, align 4
  store i32 0, ptr %14, align 4
  store i32 0, ptr %13, align 4
  br label %100

100:                                              ; preds = %93, %76
  br label %101

101:                                              ; preds = %100
  %102 = load i32, ptr %12, align 4
  %103 = add i32 %102, 1
  store i32 %103, ptr %12, align 4
  br label %73

104:                                              ; preds = %73
  br label %109

105:                                              ; preds = %60, %54
  %106 = load ptr, ptr %5, align 8
  %107 = call i32 (i32, ptr, ...) @logg(i32 noundef 5, ptr noundef @.str.26, ptr noundef %106)
  %108 = load ptr, ptr %9, align 8
  call void @freeaddrinfo(ptr noundef %108) #8
  store i32 1, ptr %4, align 4
  br label %112

109:                                              ; preds = %104
  br label %110

110:                                              ; preds = %109, %42
  %111 = load ptr, ptr %9, align 8
  call void @freeaddrinfo(ptr noundef %111) #8
  store i32 0, ptr %4, align 4
  br label %112

112:                                              ; preds = %110, %105, %25, %17
  %113 = load i32, ptr %4, align 4
  ret i32 %113
}