; Function Attrs: nounwind uwtable
define internal fastcc noundef i32 @resolve(ptr noundef %0, ptr nocapture noundef writeonly %1, ptr nocapture noundef writeonly %2) unnamed_addr #0 {
  %4 = alloca %struct.addrinfo, align 8
  %5 = alloca ptr, align 8
  %.not = icmp eq ptr %0, null
  br i1 %.not, label %6, label %7

6:                                                ; preds = %3
  store i32 0, ptr %1, align 4
  br label %48

7:                                                ; preds = %3
  %8 = getelementptr inbounds i8, ptr %4, i64 8
  call void @llvm.memset.p0.i64(ptr noundef nonnull align 8 dereferenceable(48) %4, i8 0, i64 48, i1 false)
  store i32 1, ptr %8, align 8
  %9 = call i32 @getaddrinfo(ptr noundef nonnull %0, ptr noundef null, ptr noundef nonnull %4, ptr noundef nonnull %5) #13
  %.not25 = icmp eq i32 %9, 0
  br i1 %.not25, label %12, label %10

10:                                               ; preds = %7
  %11 = call i32 (i32, ptr, ...) @logg(i32 noundef 5, ptr noundef nonnull @.str.25, ptr noundef nonnull %0) #13
  br label %48

12:                                               ; preds = %7
  %13 = load ptr, ptr %5, align 8
  %14 = getelementptr inbounds i8, ptr %13, i64 16
  %15 = load i32, ptr %14, align 8
  switch i32 %15, label %.thread [
    i32 16, label %16
    i32 28, label %25
  ]

16:                                               ; preds = %12
  %17 = getelementptr inbounds i8, ptr %13, i64 24
  %18 = load ptr, ptr %17, align 8
  %19 = load i16, ptr %18, align 2
  %20 = icmp eq i16 %19, 2
  br i1 %20, label %21, label %.thread

21:                                               ; preds = %16
  store i32 1, ptr %1, align 4
  %22 = getelementptr inbounds i8, ptr %18, i64 4
  %23 = load i32, ptr %22, align 4
  %24 = call i32 @htonl(i32 noundef %23) #14
  store i32 %24, ptr %2, align 4
  br label %.loopexit

25:                                               ; preds = %12
  %26 = getelementptr inbounds i8, ptr %13, i64 24
  %27 = load ptr, ptr %26, align 8
  %28 = load i16, ptr %27, align 2
  %29 = icmp eq i16 %28, 10
  br i1 %29, label %30, label %.thread

30:                                               ; preds = %25
  store i32 2, ptr %1, align 4
  %31 = getelementptr inbounds i8, ptr %27, i64 8
  br label %32

32:                                               ; preds = %30, %45
  %indvars.iv = phi i64 [ 0, %30 ], [ %indvars.iv.next, %45 ]
  %.028 = phi i32 [ 0, %30 ], [ %.1, %45 ]
  %.01927 = phi i32 [ 0, %30 ], [ %.120, %45 ]
  %33 = getelementptr inbounds [16 x i8], ptr %31, i64 0, i64 %indvars.iv
  %34 = load i8, ptr %33, align 1
  %35 = zext i8 %34 to i32
  %36 = shl i32 %.01927, 3
  %37 = shl i32 %35, %36
  %38 = add i32 %37, %.028
  %39 = add i32 %.01927, 1
  %40 = icmp eq i32 %39, 4
  br i1 %40, label %41, label %45

41:                                               ; preds = %32
  %42 = lshr i64 %indvars.iv, 2
  %43 = and i64 %42, 1073741823
  %44 = getelementptr inbounds i32, ptr %2, i64 %43
  store i32 %38, ptr %44, align 4
  br label %45

45:                                               ; preds = %32, %41
  %.120 = phi i32 [ 0, %41 ], [ %39, %32 ]
  %.1 = phi i32 [ 0, %41 ], [ %38, %32 ]
  %indvars.iv.next = add nuw nsw i64 %indvars.iv, 1
  %exitcond.not = icmp eq i64 %indvars.iv.next, 16
  br i1 %exitcond.not, label %.loopexit, label %32

.thread:                                          ; preds = %12, %16, %25
  %46 = call i32 (i32, ptr, ...) @logg(i32 noundef 5, ptr noundef nonnull @.str.26, ptr noundef nonnull %0) #13
  %47 = load ptr, ptr %5, align 8
  call void @freeaddrinfo(ptr noundef %47) #13
  br label %48

.loopexit:                                        ; preds = %45, %21
  call void @freeaddrinfo(ptr noundef %13) #13
  br label %48

48:                                               ; preds = %.loopexit, %.thread, %10, %6
  %.022 = phi i32 [ 1, %10 ], [ 0, %.loopexit ], [ 1, %.thread ], [ 0, %6 ]
  ret i32 %.022
}